target datalayout = "e-m:e-p270:32:32-p271:32:32-p272:64:64-i64:64-f80:128-n8:16:32:64-S128"
target triple = "x86_64-pc-linux-gnu"

%struct.fuckme = type { [20 x i8], i32, i32, i8, i8, i32 }

@.str = private unnamed_addr constant [3 x i8] c"%d\00", align 1
@.str.1 = private unnamed_addr constant [18 x i8] c"%s %d %d %c %c %d\00", align 1
@student = common dso_local global [101 x %struct.fuckme] zeroinitializer, align 16
@.str.2 = private unnamed_addr constant [10 x i8] c"%s\0A%d\0A%d\0A\00", align 1

; Function Attrs: noinline nounwind uwtable
define dso_local i32 @main() #0 {
  %1 = alloca i32, align 4
  %2 = alloca i32, align 4
  %3 = alloca i32, align 4
  %4 = alloca i32, align 4
  %5 = alloca i32, align 4
  %6 = alloca [101 x i32], align 16
  %7 = alloca [101 x i32], align 16
  %8 = alloca [101 x i32], align 16
  %9 = alloca [101 x i32], align 16
  %10 = alloca [101 x i32], align 16
  %11 = alloca [101 x i32], align 16
  store i32 0, i32* %1, align 4
  store i32 0, i32* %4, align 4
  %12 = bitcast [101 x i32]* %6 to i8*
  call void @llvm.memset.p0i8.i64(i8* align 16 %12, i8 0, i64 404, i1 false)
  %13 = bitcast [101 x i32]* %7 to i8*
  call void @llvm.memset.p0i8.i64(i8* align 16 %13, i8 0, i64 404, i1 false)
  %14 = bitcast [101 x i32]* %8 to i8*
  call void @llvm.memset.p0i8.i64(i8* align 16 %14, i8 0, i64 404, i1 false)
  %15 = bitcast [101 x i32]* %9 to i8*
  call void @llvm.memset.p0i8.i64(i8* align 16 %15, i8 0, i64 404, i1 false)
  %16 = bitcast [101 x i32]* %10 to i8*
  call void @llvm.memset.p0i8.i64(i8* align 16 %16, i8 0, i64 404, i1 false)
  %17 = call i32 (i8*, ...) @__isoc99_scanf(i8* getelementptr inbounds ([3 x i8], [3 x i8]* @.str, i64 0, i64 0), i32* %2)
  store i32 0, i32* %5, align 4
  br label %18

18:                                               ; preds = %167, %0
  %19 = load i32, i32* %5, align 4
  %20 = load i32, i32* %2, align 4
  %21 = icmp slt i32 %19, %20
  br i1 %21, label %22, label %170

22:                                               ; preds = %18
  %23 = load i32, i32* %5, align 4
  %24 = sext i32 %23 to i64
  %25 = getelementptr inbounds [101 x %struct.fuckme], [101 x %struct.fuckme]* @student, i64 0, i64 %24
  %26 = getelementptr inbounds %struct.fuckme, %struct.fuckme* %25, i32 0, i32 0
  %27 = getelementptr inbounds [20 x i8], [20 x i8]* %26, i64 0, i64 0
  %28 = load i32, i32* %5, align 4
  %29 = sext i32 %28 to i64
  %30 = getelementptr inbounds [101 x %struct.fuckme], [101 x %struct.fuckme]* @student, i64 0, i64 %29
  %31 = getelementptr inbounds %struct.fuckme, %struct.fuckme* %30, i32 0, i32 1
  %32 = load i32, i32* %5, align 4
  %33 = sext i32 %32 to i64
  %34 = getelementptr inbounds [101 x %struct.fuckme], [101 x %struct.fuckme]* @student, i64 0, i64 %33
  %35 = getelementptr inbounds %struct.fuckme, %struct.fuckme* %34, i32 0, i32 2
  %36 = load i32, i32* %5, align 4
  %37 = sext i32 %36 to i64
  %38 = getelementptr inbounds [101 x %struct.fuckme], [101 x %struct.fuckme]* @student, i64 0, i64 %37
  %39 = getelementptr inbounds %struct.fuckme, %struct.fuckme* %38, i32 0, i32 3
  %40 = load i32, i32* %5, align 4
  %41 = sext i32 %40 to i64
  %42 = getelementptr inbounds [101 x %struct.fuckme], [101 x %struct.fuckme]* @student, i64 0, i64 %41
  %43 = getelementptr inbounds %struct.fuckme, %struct.fuckme* %42, i32 0, i32 4
  %44 = load i32, i32* %5, align 4
  %45 = sext i32 %44 to i64
  %46 = getelementptr inbounds [101 x %struct.fuckme], [101 x %struct.fuckme]* @student, i64 0, i64 %45
  %47 = getelementptr inbounds %struct.fuckme, %struct.fuckme* %46, i32 0, i32 5
  %48 = call i32 (i8*, ...) @__isoc99_scanf(i8* getelementptr inbounds ([18 x i8], [18 x i8]* @.str.1, i64 0, i64 0), i8* %27, i32* %31, i32* %35, i8* %39, i8* %43, i32* %47)
  %49 = load i32, i32* %5, align 4
  %50 = sext i32 %49 to i64
  %51 = getelementptr inbounds [101 x %struct.fuckme], [101 x %struct.fuckme]* @student, i64 0, i64 %50
  %52 = getelementptr inbounds %struct.fuckme, %struct.fuckme* %51, i32 0, i32 1
  %53 = load i32, i32* %52, align 4
  %54 = icmp sgt i32 %53, 80
  br i1 %54, label %55, label %66

55:                                               ; preds = %22
  %56 = load i32, i32* %5, align 4
  %57 = sext i32 %56 to i64
  %58 = getelementptr inbounds [101 x %struct.fuckme], [101 x %struct.fuckme]* @student, i64 0, i64 %57
  %59 = getelementptr inbounds %struct.fuckme, %struct.fuckme* %58, i32 0, i32 5
  %60 = load i32, i32* %59, align 4
  %61 = icmp sgt i32 %60, 0
  br i1 %61, label %62, label %66

62:                                               ; preds = %55
  %63 = load i32, i32* %5, align 4
  %64 = sext i32 %63 to i64
  %65 = getelementptr inbounds [101 x i32], [101 x i32]* %6, i64 0, i64 %64
  store i32 8000, i32* %65, align 4
  br label %66

66:                                               ; preds = %62, %55, %22
  %67 = load i32, i32* %5, align 4
  %68 = sext i32 %67 to i64
  %69 = getelementptr inbounds [101 x %struct.fuckme], [101 x %struct.fuckme]* @student, i64 0, i64 %68
  %70 = getelementptr inbounds %struct.fuckme, %struct.fuckme* %69, i32 0, i32 1
  %71 = load i32, i32* %70, align 4
  %72 = icmp sgt i32 %71, 85
  br i1 %72, label %73, label %84

73:                                               ; preds = %66
  %74 = load i32, i32* %5, align 4
  %75 = sext i32 %74 to i64
  %76 = getelementptr inbounds [101 x %struct.fuckme], [101 x %struct.fuckme]* @student, i64 0, i64 %75
  %77 = getelementptr inbounds %struct.fuckme, %struct.fuckme* %76, i32 0, i32 2
  %78 = load i32, i32* %77, align 4
  %79 = icmp sgt i32 %78, 80
  br i1 %79, label %80, label %84

80:                                               ; preds = %73
  %81 = load i32, i32* %5, align 4
  %82 = sext i32 %81 to i64
  %83 = getelementptr inbounds [101 x i32], [101 x i32]* %7, i64 0, i64 %82
  store i32 4000, i32* %83, align 4
  br label %84

84:                                               ; preds = %80, %73, %66
  %85 = load i32, i32* %5, align 4
  %86 = sext i32 %85 to i64
  %87 = getelementptr inbounds [101 x %struct.fuckme], [101 x %struct.fuckme]* @student, i64 0, i64 %86
  %88 = getelementptr inbounds %struct.fuckme, %struct.fuckme* %87, i32 0, i32 1
  %89 = load i32, i32* %88, align 4
  %90 = icmp sgt i32 %89, 90
  br i1 %90, label %91, label %95

91:                                               ; preds = %84
  %92 = load i32, i32* %5, align 4
  %93 = sext i32 %92 to i64
  %94 = getelementptr inbounds [101 x i32], [101 x i32]* %8, i64 0, i64 %93
  store i32 2000, i32* %94, align 4
  br label %95

95:                                               ; preds = %91, %84
  %96 = load i32, i32* %5, align 4
  %97 = sext i32 %96 to i64
  %98 = getelementptr inbounds [101 x %struct.fuckme], [101 x %struct.fuckme]* @student, i64 0, i64 %97
  %99 = getelementptr inbounds %struct.fuckme, %struct.fuckme* %98, i32 0, i32 1
  %100 = load i32, i32* %99, align 4
  %101 = icmp sgt i32 %100, 85
  br i1 %101, label %102, label %114

102:                                              ; preds = %95
  %103 = load i32, i32* %5, align 4
  %104 = sext i32 %103 to i64
  %105 = getelementptr inbounds [101 x %struct.fuckme], [101 x %struct.fuckme]* @student, i64 0, i64 %104
  %106 = getelementptr inbounds %struct.fuckme, %struct.fuckme* %105, i32 0, i32 4
  %107 = load i8, i8* %106, align 1
  %108 = sext i8 %107 to i32
  %109 = icmp eq i32 %108, 89
  br i1 %109, label %110, label %114

110:                                              ; preds = %102
  %111 = load i32, i32* %5, align 4
  %112 = sext i32 %111 to i64
  %113 = getelementptr inbounds [101 x i32], [101 x i32]* %9, i64 0, i64 %112
  store i32 1000, i32* %113, align 4
  br label %114

114:                                              ; preds = %110, %102, %95
  %115 = load i32, i32* %5, align 4
  %116 = sext i32 %115 to i64
  %117 = getelementptr inbounds [101 x %struct.fuckme], [101 x %struct.fuckme]* @student, i64 0, i64 %116
  %118 = getelementptr inbounds %struct.fuckme, %struct.fuckme* %117, i32 0, i32 2
  %119 = load i32, i32* %118, align 4
  %120 = icmp sgt i32 %119, 80
  br i1 %120, label %121, label %133

121:                                              ; preds = %114
  %122 = load i32, i32* %5, align 4
  %123 = sext i32 %122 to i64
  %124 = getelementptr inbounds [101 x %struct.fuckme], [101 x %struct.fuckme]* @student, i64 0, i64 %123
  %125 = getelementptr inbounds %struct.fuckme, %struct.fuckme* %124, i32 0, i32 3
  %126 = load i8, i8* %125, align 4
  %127 = sext i8 %126 to i32
  %128 = icmp eq i32 %127, 89
  br i1 %128, label %129, label %133

129:                                              ; preds = %121
  %130 = load i32, i32* %5, align 4
  %131 = sext i32 %130 to i64
  %132 = getelementptr inbounds [101 x i32], [101 x i32]* %10, i64 0, i64 %131
  store i32 850, i32* %132, align 4
  br label %133

133:                                              ; preds = %129, %121, %114
  %134 = load i32, i32* %5, align 4
  %135 = sext i32 %134 to i64
  %136 = getelementptr inbounds [101 x i32], [101 x i32]* %6, i64 0, i64 %135
  %137 = load i32, i32* %136, align 4
  %138 = load i32, i32* %5, align 4
  %139 = sext i32 %138 to i64
  %140 = getelementptr inbounds [101 x i32], [101 x i32]* %7, i64 0, i64 %139
  %141 = load i32, i32* %140, align 4
  %142 = add nsw i32 %137, %141
  %143 = load i32, i32* %5, align 4
  %144 = sext i32 %143 to i64
  %145 = getelementptr inbounds [101 x i32], [101 x i32]* %8, i64 0, i64 %144
  %146 = load i32, i32* %145, align 4
  %147 = add nsw i32 %142, %146
  %148 = load i32, i32* %5, align 4
  %149 = sext i32 %148 to i64
  %150 = getelementptr inbounds [101 x i32], [101 x i32]* %9, i64 0, i64 %149
  %151 = load i32, i32* %150, align 4
  %152 = add nsw i32 %147, %151
  %153 = load i32, i32* %5, align 4
  %154 = sext i32 %153 to i64
  %155 = getelementptr inbounds [101 x i32], [101 x i32]* %10, i64 0, i64 %154
  %156 = load i32, i32* %155, align 4
  %157 = add nsw i32 %152, %156
  %158 = load i32, i32* %5, align 4
  %159 = sext i32 %158 to i64
  %160 = getelementptr inbounds [101 x i32], [101 x i32]* %11, i64 0, i64 %159
  store i32 %157, i32* %160, align 4
  %161 = load i32, i32* %5, align 4
  %162 = sext i32 %161 to i64
  %163 = getelementptr inbounds [101 x i32], [101 x i32]* %11, i64 0, i64 %162
  %164 = load i32, i32* %163, align 4
  %165 = load i32, i32* %4, align 4
  %166 = add nsw i32 %165, %164
  store i32 %166, i32* %4, align 4
  br label %167

167:                                              ; preds = %133
  %168 = load i32, i32* %5, align 4
  %169 = add nsw i32 %168, 1
  store i32 %169, i32* %5, align 4
  br label %18

170:                                              ; preds = %18
  %171 = getelementptr inbounds [101 x i32], [101 x i32]* %11, i64 0, i64 0
  %172 = load i32, i32* %2, align 4
  %173 = call i32 @max(i32* %171, i32 %172)
  store i32 %173, i32* %3, align 4
  %174 = load i32, i32* %3, align 4
  %175 = sext i32 %174 to i64
  %176 = getelementptr inbounds [101 x %struct.fuckme], [101 x %struct.fuckme]* @student, i64 0, i64 %175
  %177 = getelementptr inbounds %struct.fuckme, %struct.fuckme* %176, i32 0, i32 0
  %178 = getelementptr inbounds [20 x i8], [20 x i8]* %177, i64 0, i64 0
  %179 = load i32, i32* %3, align 4
  %180 = sext i32 %179 to i64
  %181 = getelementptr inbounds [101 x i32], [101 x i32]* %11, i64 0, i64 %180
  %182 = load i32, i32* %181, align 4
  %183 = load i32, i32* %4, align 4
  %184 = call i32 (i8*, ...) @printf(i8* getelementptr inbounds ([10 x i8], [10 x i8]* @.str.2, i64 0, i64 0), i8* %178, i32 %182, i32 %183)
  ret i32 0
}

; Function Attrs: noinline nounwind uwtable
define dso_local i32 @max(i32* %0, i32 %1) #0 {
  %3 = alloca i32*, align 8
  %4 = alloca i32, align 4
  %5 = alloca i32, align 4
  %6 = alloca i32, align 4
  %7 = alloca i32, align 4
  store i32* %0, i32** %3, align 8
  store i32 %1, i32* %4, align 4
  store i32 0, i32* %5, align 4
  store i32 0, i32* %6, align 4
  store i32 0, i32* %7, align 4
  store i32 0, i32* %6, align 4
  br label %8

8:                                                ; preds = %28, %2
  %9 = load i32, i32* %6, align 4
  %10 = load i32, i32* %4, align 4
  %11 = icmp slt i32 %9, %10
  br i1 %11, label %12, label %31

12:                                               ; preds = %8
  %13 = load i32*, i32** %3, align 8
  %14 = load i32, i32* %6, align 4
  %15 = sext i32 %14 to i64
  %16 = getelementptr inbounds i32, i32* %13, i64 %15
  %17 = load i32, i32* %16, align 4
  %18 = load i32, i32* %5, align 4
  %19 = icmp sgt i32 %17, %18
  br i1 %19, label %20, label %27

20:                                               ; preds = %12
  %21 = load i32*, i32** %3, align 8
  %22 = load i32, i32* %6, align 4
  %23 = sext i32 %22 to i64
  %24 = getelementptr inbounds i32, i32* %21, i64 %23
  %25 = load i32, i32* %24, align 4
  store i32 %25, i32* %5, align 4
  %26 = load i32, i32* %6, align 4
  store i32 %26, i32* %7, align 4
  br label %27

27:                                               ; preds = %20, %12
  br label %28

28:                                               ; preds = %27
  %29 = load i32, i32* %6, align 4
  %30 = add nsw i32 %29, 1
  store i32 %30, i32* %6, align 4
  br label %8

31:                                               ; preds = %8
  %32 = load i32, i32* %7, align 4
  ret i32 %32
}